target datalayout = "e-m:e-p270:32:32-p271:32:32-p272:64:64-i64:64-i128:128-f80:128-n8:16:32:64-S128"
target triple = "x86_64-pc-linux-gnu"

%struct.gmx_ana_index_t = type { i32, ptr, i32 }

; Function Attrs: mustprogress nounwind uwtable
define noundef zeroext i1 @_Z22gmx_ana_index_containsP15gmx_ana_index_tS0_(ptr noundef %0, ptr noundef %1) #1 {
  %3 = alloca i1, align 1
  %4 = alloca ptr, align 8
  %5 = alloca ptr, align 8
  %6 = alloca i32, align 4
  %7 = alloca i32, align 4
  %8 = alloca i32, align 4
  store ptr %0, ptr %4, align 8, !tbaa !232
  store ptr %1, ptr %5, align 8, !tbaa !232
  call void @llvm.lifetime.start.p0(i64 4, ptr %6) #19
  call void @llvm.lifetime.start.p0(i64 4, ptr %7) #19
  store i32 0, ptr %7, align 4, !tbaa !114
  store i32 0, ptr %6, align 4, !tbaa !114
  br label %9

9:                                                ; preds = %51, %2
  %10 = load i32, ptr %7, align 4, !tbaa !114
  %11 = load ptr, ptr %5, align 8, !tbaa !232
  %12 = getelementptr inbounds nuw %struct.gmx_ana_index_t, ptr %11, i32 0, i32 0
  %13 = load i32, ptr %12, align 8, !tbaa !234
  %14 = icmp slt i32 %10, %13
  br i1 %14, label %15, label %56

15:                                               ; preds = %9
  br label %16

16:                                               ; preds = %40, %15
  %17 = load i32, ptr %6, align 4, !tbaa !114
  %18 = load ptr, ptr %4, align 8, !tbaa !232
  %19 = getelementptr inbounds nuw %struct.gmx_ana_index_t, ptr %18, i32 0, i32 0
  %20 = load i32, ptr %19, align 8, !tbaa !234
  %21 = icmp slt i32 %17, %20
  br i1 %21, label %22, label %38

22:                                               ; preds = %16
  %23 = load ptr, ptr %4, align 8, !tbaa !232
  %24 = getelementptr inbounds nuw %struct.gmx_ana_index_t, ptr %23, i32 0, i32 1
  %25 = load ptr, ptr %24, align 8, !tbaa !236
  %26 = load i32, ptr %6, align 4, !tbaa !114
  %27 = sext i32 %26 to i64
  %28 = getelementptr inbounds i32, ptr %25, i64 %27
  %29 = load i32, ptr %28, align 4, !tbaa !114
  %30 = load ptr, ptr %5, align 8, !tbaa !232
  %31 = getelementptr inbounds nuw %struct.gmx_ana_index_t, ptr %30, i32 0, i32 1
  %32 = load ptr, ptr %31, align 8, !tbaa !236
  %33 = load i32, ptr %7, align 4, !tbaa !114
  %34 = sext i32 %33 to i64
  %35 = getelementptr inbounds i32, ptr %32, i64 %34
  %36 = load i32, ptr %35, align 4, !tbaa !114
  %37 = icmp ne i32 %29, %36
  br label %38

38:                                               ; preds = %22, %16
  %39 = phi i1 [ false, %16 ], [ %37, %22 ]
  br i1 %39, label %40, label %43

40:                                               ; preds = %38
  %41 = load i32, ptr %6, align 4, !tbaa !114
  %42 = add nsw i32 %41, 1
  store i32 %42, ptr %6, align 4, !tbaa !114
  br label %16, !llvm.loop !332

43:                                               ; preds = %38
  %44 = load i32, ptr %6, align 4, !tbaa !114
  %45 = load ptr, ptr %4, align 8, !tbaa !232
  %46 = getelementptr inbounds nuw %struct.gmx_ana_index_t, ptr %45, i32 0, i32 0
  %47 = load i32, ptr %46, align 8, !tbaa !234
  %48 = icmp eq i32 %44, %47
  br i1 %48, label %49, label %50

49:                                               ; preds = %43
  store i1 false, ptr %3, align 1
  store i32 1, ptr %8, align 4
  br label %57

50:                                               ; preds = %43
  br label %51

51:                                               ; preds = %50
  %52 = load i32, ptr %6, align 4, !tbaa !114
  %53 = add nsw i32 %52, 1
  store i32 %53, ptr %6, align 4, !tbaa !114
  %54 = load i32, ptr %7, align 4, !tbaa !114
  %55 = add nsw i32 %54, 1
  store i32 %55, ptr %7, align 4, !tbaa !114
  br label %9, !llvm.loop !333

56:                                               ; preds = %9
  store i1 true, ptr %3, align 1
  store i32 1, ptr %8, align 4
  br label %57

57:                                               ; preds = %56, %49
  call void @llvm.lifetime.end.p0(i64 4, ptr %7) #19
  call void @llvm.lifetime.end.p0(i64 4, ptr %6) #19
  %58 = load i1, ptr %3, align 1
  ret i1 %58
}