; Function Attrs: mustprogress nofree norecurse nosync nounwind willreturn memory(read, inaccessiblemem: none) uwtable
define noundef zeroext i1 @_Z22gmx_ana_index_containsP15gmx_ana_index_tS0_(ptr noundef readonly captures(none) %0, ptr noundef readonly captures(none) %1) local_unnamed_addr #18 {
  %3 = load i32, ptr %1, align 8, !tbaa !73
  %4 = icmp slt i32 %3, 1
  br i1 %4, label %._crit_edge, label %.preheader.lr.ph

.preheader.lr.ph:                                 ; preds = %2
  %5 = getelementptr inbounds nuw i8, ptr %0, i64 8
  %6 = load i32, ptr %0, align 8, !tbaa !73
  %7 = getelementptr inbounds nuw i8, ptr %1, i64 8
  %8 = sext i32 %6 to i64
  %wide.trip.count = zext nneg i32 %3 to i64
  br label %.preheader

.preheader:                                       ; preds = %.preheader.lr.ph, %20
  %indvars.iv27 = phi i64 [ 0, %.preheader.lr.ph ], [ %indvars.iv.next28, %20 ]
  %.01321 = phi i32 [ 0, %.preheader.lr.ph ], [ %21, %20 ]
  %9 = icmp slt i32 %.01321, %6
  br i1 %9, label %.lr.ph, label %.critedge

.lr.ph:                                           ; preds = %.preheader
  %10 = load ptr, ptr %5, align 8, !tbaa !108
  %11 = load ptr, ptr %7, align 8, !tbaa !108
  %12 = getelementptr inbounds nuw i32, ptr %11, i64 %indvars.iv27
  %13 = load i32, ptr %12, align 4, !tbaa !36
  %14 = sext i32 %.01321 to i64
  br label %15

15:                                               ; preds = %.lr.ph, %18
  %indvars.iv = phi i64 [ %14, %.lr.ph ], [ %indvars.iv.next, %18 ]
  %16 = getelementptr inbounds i32, ptr %10, i64 %indvars.iv
  %17 = load i32, ptr %16, align 4, !tbaa !36
  %.not = icmp eq i32 %17, %13
  br i1 %.not, label %.critedge.loopexit, label %18

18:                                               ; preds = %15
  %indvars.iv.next = add nsw i64 %indvars.iv, 1
  %exitcond.not = icmp eq i64 %indvars.iv.next, %8
  br i1 %exitcond.not, label %._crit_edge, label %15, !llvm.loop !129

.critedge.loopexit:                               ; preds = %15
  %19 = trunc nsw i64 %indvars.iv to i32
  br label %.critedge

.critedge:                                        ; preds = %.critedge.loopexit, %.preheader
  %.1.lcssa = phi i32 [ %.01321, %.preheader ], [ %19, %.critedge.loopexit ]
  %.not34.not = icmp ne i32 %.1.lcssa, %6
  br i1 %.not34.not, label %20, label %._crit_edge

20:                                               ; preds = %.critedge
  %21 = add nsw i32 %.1.lcssa, 1
  %indvars.iv.next28 = add nuw nsw i64 %indvars.iv27, 1
  %exitcond30.not = icmp eq i64 %indvars.iv.next28, %wide.trip.count
  br i1 %exitcond30.not, label %._crit_edge, label %.preheader, !llvm.loop !130

._crit_edge:                                      ; preds = %.critedge, %20, %18, %2
  %.lcssa15 = phi i1 [ true, %2 ], [ false, %18 ], [ %.not34.not, %20 ], [ %.not34.not, %.critedge ]
  ret i1 %.lcssa15
}